; Function Attrs: nofree norecurse nosync nounwind memory(readwrite, inaccessiblemem: none) uwtable
define void @Hop_ManIncrementTravId(ptr noundef captures(none) %0) local_unnamed_addr #0 {
  %2 = getelementptr inbounds nuw i8, ptr %0, i64 128
  %3 = load i32, ptr %2, align 8, !tbaa !3
  %4 = icmp sgt i32 %3, 1073741822
  br i1 %4, label %5, label %Hop_ManCleanData.exit

5:                                                ; preds = %1
  store i32 1, ptr %2, align 8, !tbaa !3
  %6 = getelementptr i8, ptr %0, i64 24
  %.val.i = load ptr, ptr %6, align 8, !tbaa !14
  store ptr null, ptr %.val.i, align 8, !tbaa !15
  %7 = load ptr, ptr %0, align 8, !tbaa !16
  %8 = getelementptr i8, ptr %7, i64 4
  %.val2226.i = load i32, ptr %8, align 4, !tbaa !17
  %9 = icmp sgt i32 %.val2226.i, 0
  br i1 %9, label %.lr.ph.i, label %.critedge.preheader.i

.critedge.preheader.i:                            ; preds = %.lr.ph.i, %5
  %10 = getelementptr inbounds nuw i8, ptr %0, i64 8
  %11 = load ptr, ptr %10, align 8, !tbaa !19
  %12 = getelementptr i8, ptr %11, i64 4
  %.val2328.i = load i32, ptr %12, align 4, !tbaa !17
  %13 = icmp sgt i32 %.val2328.i, 0
  br i1 %13, label %.critedge.i, label %.critedge2.preheader.i

.lr.ph.i:                                         ; preds = %5, %.lr.ph.i
  %indvars.iv.i = phi i64 [ %indvars.iv.next.i, %.lr.ph.i ], [ 0, %5 ]
  %14 = phi ptr [ %18, %.lr.ph.i ], [ %7, %5 ]
  %15 = getelementptr i8, ptr %14, i64 8
  %.val24.i = load ptr, ptr %15, align 8, !tbaa !20
  %16 = getelementptr inbounds nuw ptr, ptr %.val24.i, i64 %indvars.iv.i
  %17 = load ptr, ptr %16, align 8, !tbaa !21
  store ptr null, ptr %17, align 8, !tbaa !15
  %indvars.iv.next.i = add nuw nsw i64 %indvars.iv.i, 1
  %18 = load ptr, ptr %0, align 8, !tbaa !16
  %19 = getelementptr i8, ptr %18, i64 4
  %.val22.i = load i32, ptr %19, align 4, !tbaa !17
  %20 = sext i32 %.val22.i to i64
  %21 = icmp slt i64 %indvars.iv.next.i, %20
  br i1 %21, label %.lr.ph.i, label %.critedge.preheader.i, !llvm.loop !22

.critedge2.preheader.i:                           ; preds = %.critedge.i, %.critedge.preheader.i
  %22 = getelementptr inbounds nuw i8, ptr %0, i64 112
  %23 = load i32, ptr %22, align 8, !tbaa !24
  %24 = icmp sgt i32 %23, 0
  br i1 %24, label %.lr.ph32.i, label %Hop_ManCleanData.exit

.lr.ph32.i:                                       ; preds = %.critedge2.preheader.i
  %25 = getelementptr inbounds nuw i8, ptr %0, i64 104
  br label %34

.critedge.i:                                      ; preds = %.critedge.preheader.i, %.critedge.i
  %indvars.iv35.i = phi i64 [ %indvars.iv.next36.i, %.critedge.i ], [ 0, %.critedge.preheader.i ]
  %26 = phi ptr [ %30, %.critedge.i ], [ %11, %.critedge.preheader.i ]
  %27 = getelementptr i8, ptr %26, i64 8
  %.val25.i = load ptr, ptr %27, align 8, !tbaa !20
  %28 = getelementptr inbounds nuw ptr, ptr %.val25.i, i64 %indvars.iv35.i
  %29 = load ptr, ptr %28, align 8, !tbaa !21
  store ptr null, ptr %29, align 8, !tbaa !15
  %indvars.iv.next36.i = add nuw nsw i64 %indvars.iv35.i, 1
  %30 = load ptr, ptr %10, align 8, !tbaa !19
  %31 = getelementptr i8, ptr %30, i64 4
  %.val23.i = load i32, ptr %31, align 4, !tbaa !17
  %32 = sext i32 %.val23.i to i64
  %33 = icmp slt i64 %indvars.iv.next36.i, %32
  br i1 %33, label %.critedge.i, label %.critedge2.preheader.i, !llvm.loop !25

34:                                               ; preds = %.critedge2.i, %.lr.ph32.i
  %35 = phi i32 [ %23, %.lr.ph32.i ], [ %41, %.critedge2.i ]
  %indvars.iv38.i = phi i64 [ 0, %.lr.ph32.i ], [ %indvars.iv.next39.i, %.critedge2.i ]
  %36 = load ptr, ptr %25, align 8, !tbaa !26
  %37 = getelementptr inbounds nuw ptr, ptr %36, i64 %indvars.iv38.i
  %38 = load ptr, ptr %37, align 8, !tbaa !27
  %39 = icmp eq ptr %38, null
  br i1 %39, label %.critedge2.i, label %40

40:                                               ; preds = %34
  store ptr null, ptr %38, align 8, !tbaa !15
  %.pre.i = load i32, ptr %22, align 8, !tbaa !24
  br label %.critedge2.i

.critedge2.i:                                     ; preds = %40, %34
  %41 = phi i32 [ %.pre.i, %40 ], [ %35, %34 ]
  %indvars.iv.next39.i = add nuw nsw i64 %indvars.iv38.i, 1
  %42 = sext i32 %41 to i64
  %43 = icmp slt i64 %indvars.iv.next39.i, %42
  br i1 %43, label %34, label %Hop_ManCleanData.exit, !llvm.loop !28

Hop_ManCleanData.exit:                            ; preds = %.critedge2.i, %.critedge2.preheader.i, %1
  %44 = load i32, ptr %2, align 8, !tbaa !3
  %45 = add nsw i32 %44, 1
  store i32 %45, ptr %2, align 8, !tbaa !3
  ret void
}